target datalayout = "e-m:e-p270:32:32-p271:32:32-p272:64:64-i64:64-i128:128-f80:128-n8:16:32:64-S128"
target triple = "x86_64-pc-linux-gnu"

@.str.20 = private unnamed_addr constant [9 x i8] c"<double>\00", align 1
@.str.21 = private unnamed_addr constant [8 x i8] c"<float>\00", align 1
@.str.22 = private unnamed_addr constant [6 x i8] c"<int>\00", align 1
@.str.23 = private unnamed_addr constant [9 x i8] c"<string>\00", align 1
@.str.24 = private unnamed_addr constant [7 x i8] c"<bool>\00", align 1
@.str.25 = private unnamed_addr constant [13 x i8] c"<vector_int>\00", align 1
@.str.26 = private unnamed_addr constant [16 x i8] c"<vector_double>\00", align 1
@.str.27 = private unnamed_addr constant [1 x i8] zeroinitializer, align 1

; Function Attrs: mustprogress nounwind uwtable
define noundef ptr @_ZNK3g2o11CommandArgs8type2strEi(ptr noundef nonnull align 8 dereferenceable(144) %0, i32 noundef %1) #4 align 2 {
  %3 = alloca ptr, align 8
  %4 = alloca ptr, align 8
  %5 = alloca i32, align 4
  store ptr %0, ptr %4, align 8
  store i32 %1, ptr %5, align 4
  %6 = load i32, ptr %5, align 4
  switch i32 %6, label %14 [
    i32 0, label %7
    i32 1, label %8
    i32 2, label %9
    i32 3, label %10
    i32 4, label %11
    i32 5, label %12
    i32 6, label %13
  ]

7:                                                ; preds = %2
  store ptr @.str.20, ptr %3, align 8
  br label %15

8:                                                ; preds = %2
  store ptr @.str.21, ptr %3, align 8
  br label %15

9:                                                ; preds = %2
  store ptr @.str.22, ptr %3, align 8
  br label %15

10:                                               ; preds = %2
  store ptr @.str.23, ptr %3, align 8
  br label %15

11:                                               ; preds = %2
  store ptr @.str.24, ptr %3, align 8
  br label %15

12:                                               ; preds = %2
  store ptr @.str.25, ptr %3, align 8
  br label %15

13:                                               ; preds = %2
  store ptr @.str.26, ptr %3, align 8
  br label %15

14:                                               ; preds = %2
  store ptr @.str.27, ptr %3, align 8
  br label %15

15:                                               ; preds = %14, %13, %12, %11, %10, %9, %8, %7
  %16 = load ptr, ptr %3, align 8
  ret ptr %16
}