; Function Attrs: mustprogress nofree norecurse nosync nounwind willreturn memory(none) uwtable
define noundef nonnull ptr @_ZNK3g2o11CommandArgs8type2strEi(ptr nocapture noundef nonnull readnone align 8 dereferenceable(144) %0, i32 noundef %1) local_unnamed_addr #7 align 2 {
  %3 = icmp ult i32 %1, 7
  br i1 %3, label %switch.lookup, label %5

switch.lookup:                                    ; preds = %2
  %4 = zext nneg i32 %1 to i64
  %switch.gep = getelementptr inbounds [7 x ptr], ptr @switch.table._ZNK3g2o11CommandArgs8type2strEi, i64 0, i64 %4
  %switch.load = load ptr, ptr %switch.gep, align 8
  br label %5

5:                                                ; preds = %2, %switch.lookup
  %.0 = phi ptr [ %switch.load, %switch.lookup ], [ @.str.27, %2 ]
  ret ptr %.0
}